target datalayout = "e-m:e-p270:32:32-p271:32:32-p272:64:64-i64:64-i128:128-f80:128-n8:16:32:64-S128"
target triple = "x86_64-pc-linux-gnu"

%struct.Mio_LibraryStruct_t_ = type { ptr, i32, ptr, ptr, ptr, ptr, ptr, ptr, ptr, ptr, ptr, ptr, ptr, ptr, ptr, ptr, i32, i32, i32, ptr, ptr, ptr, i32, ptr, ptr, ptr, ptr, [3 x ptr], [3 x ptr] }

; Function Attrs: nounwind uwtable
define void @Mio_LibrarySetName(ptr noundef %0, ptr noundef %1) #0 {
  %3 = alloca ptr, align 8
  %4 = alloca ptr, align 8
  store ptr %0, ptr %3, align 8, !tbaa !3
  store ptr %1, ptr %4, align 8, !tbaa !46
  %5 = load ptr, ptr %3, align 8, !tbaa !3
  %6 = getelementptr inbounds nuw %struct.Mio_LibraryStruct_t_, ptr %5, i32 0, i32 0
  %7 = load ptr, ptr %6, align 8, !tbaa !8
  %8 = icmp ne ptr %7, null
  br i1 %8, label %9, label %15

9:                                                ; preds = %2
  %10 = load ptr, ptr %3, align 8, !tbaa !3
  %11 = getelementptr inbounds nuw %struct.Mio_LibraryStruct_t_, ptr %10, i32 0, i32 0
  %12 = load ptr, ptr %11, align 8, !tbaa !8
  call void @free(ptr noundef %12) #6
  %13 = load ptr, ptr %3, align 8, !tbaa !3
  %14 = getelementptr inbounds nuw %struct.Mio_LibraryStruct_t_, ptr %13, i32 0, i32 0
  store ptr null, ptr %14, align 8, !tbaa !8
  br label %16

15:                                               ; preds = %2
  br label %16

16:                                               ; preds = %15, %9
  %17 = load ptr, ptr %4, align 8, !tbaa !46
  %18 = load ptr, ptr %3, align 8, !tbaa !3
  %19 = getelementptr inbounds nuw %struct.Mio_LibraryStruct_t_, ptr %18, i32 0, i32 0
  store ptr %17, ptr %19, align 8, !tbaa !8
  ret void
}