; Function Attrs: mustprogress nounwind willreturn uwtable
define void @Mio_LibrarySetName(ptr noundef captures(none) %0, ptr noundef %1) local_unnamed_addr #2 {
  %3 = load ptr, ptr %0, align 8, !tbaa !3
  %.not = icmp eq ptr %3, null
  br i1 %.not, label %5, label %4

4:                                                ; preds = %2
  tail call void @free(ptr noundef nonnull %3) #14
  br label %5

5:                                                ; preds = %2, %4
  store ptr %1, ptr %0, align 8, !tbaa !3
  ret void
}